; Function Attrs: mustprogress nounwind uwtable
define internal void @_ZN4node9inspector8protocol4cbor12_GLOBAL__N_111CBOREncoderINSt7__cxx1112basic_stringIcSt11char_traitsIcESaIcEEEE11HandleErrorENS1_6StatusE(ptr nocapture noundef nonnull readonly align 8 dereferenceable(48) %this, i32 %error.coerce0, i64 %error.coerce1) unnamed_addr #1 align 2 {
entry:
  %status_ = getelementptr inbounds i8, ptr %this, i64 40
  %0 = load ptr, ptr %status_, align 8
  %1 = load i32, ptr %0, align 8
  %cmp.i = icmp eq i32 %1, 0
  br i1 %cmp.i, label %if.end, label %return

if.end:                                           ; preds = %entry
  store i32 %error.coerce0, ptr %0, align 8
  %error.sroa.21.0..sroa_idx = getelementptr inbounds i8, ptr %0, i64 8
  store i64 %error.coerce1, ptr %error.sroa.21.0..sroa_idx, align 8
  %out_ = getelementptr inbounds i8, ptr %this, i64 8
  %2 = load ptr, ptr %out_, align 8
  tail call void @_ZNSt7__cxx1112basic_stringIcSt11char_traitsIcESaIcEE5clearEv(ptr noundef nonnull align 8 dereferenceable(32) %2) #27
  br label %return

return:                                           ; preds = %entry, %if.end
  ret void
}